target datalayout = "e-m:e-p270:32:32-p271:32:32-p272:64:64-i64:64-i128:128-f80:128-n8:16:32:64-S128"
target triple = "x86_64-pc-linux-gnu"

%struct.AVFilterFormats = type { i32, ptr, i32, ptr }

; Function Attrs: nounwind uwtable
define void @ff_formats_unref(ptr noundef %0) #0 {
  %2 = alloca ptr, align 8
  %3 = alloca i32, align 4
  %4 = alloca i32, align 4
  %5 = alloca i32, align 4
  store ptr %0, ptr %2, align 8, !tbaa !45
  br label %6

6:                                                ; preds = %1
  call void @llvm.lifetime.start.p0(i64 4, ptr %3) #7
  store i32 -1, ptr %3, align 4, !tbaa !21
  %7 = load ptr, ptr %2, align 8, !tbaa !45
  %8 = load ptr, ptr %7, align 8, !tbaa !27
  %9 = icmp ne ptr %8, null
  br i1 %9, label %11, label %10

10:                                               ; preds = %6
  store i32 1, ptr %4, align 4
  br label %94

11:                                               ; preds = %6
  br label %12

12:                                               ; preds = %11
  call void @llvm.lifetime.start.p0(i64 4, ptr %5) #7
  store i32 0, ptr %5, align 4, !tbaa !21
  br label %13

13:                                               ; preds = %34, %12
  %14 = load i32, ptr %5, align 4, !tbaa !21
  %15 = load ptr, ptr %2, align 8, !tbaa !45
  %16 = load ptr, ptr %15, align 8, !tbaa !27
  %17 = getelementptr inbounds nuw %struct.AVFilterFormats, ptr %16, i32 0, i32 2
  %18 = load i32, ptr %17, align 8, !tbaa !49
  %19 = icmp ult i32 %14, %18
  br i1 %19, label %20, label %37

20:                                               ; preds = %13
  %21 = load ptr, ptr %2, align 8, !tbaa !45
  %22 = load ptr, ptr %21, align 8, !tbaa !27
  %23 = getelementptr inbounds nuw %struct.AVFilterFormats, ptr %22, i32 0, i32 3
  %24 = load ptr, ptr %23, align 8, !tbaa !50
  %25 = load i32, ptr %5, align 4, !tbaa !21
  %26 = sext i32 %25 to i64
  %27 = getelementptr inbounds ptr, ptr %24, i64 %26
  %28 = load ptr, ptr %27, align 8, !tbaa !45
  %29 = load ptr, ptr %2, align 8, !tbaa !45
  %30 = icmp eq ptr %28, %29
  br i1 %30, label %31, label %33

31:                                               ; preds = %20
  %32 = load i32, ptr %5, align 4, !tbaa !21
  store i32 %32, ptr %3, align 4, !tbaa !21
  br label %37

33:                                               ; preds = %20
  br label %34

34:                                               ; preds = %33
  %35 = load i32, ptr %5, align 4, !tbaa !21
  %36 = add nsw i32 %35, 1
  store i32 %36, ptr %5, align 4, !tbaa !21
  br label %13, !llvm.loop !51

37:                                               ; preds = %31, %13
  call void @llvm.lifetime.end.p0(i64 4, ptr %5) #7
  br label %38

38:                                               ; preds = %37
  br label %39

39:                                               ; preds = %38
  %40 = load i32, ptr %3, align 4, !tbaa !21
  %41 = icmp sge i32 %40, 0
  br i1 %41, label %42, label %72

42:                                               ; preds = %39
  %43 = load ptr, ptr %2, align 8, !tbaa !45
  %44 = load ptr, ptr %43, align 8, !tbaa !27
  %45 = getelementptr inbounds nuw %struct.AVFilterFormats, ptr %44, i32 0, i32 3
  %46 = load ptr, ptr %45, align 8, !tbaa !50
  %47 = load i32, ptr %3, align 4, !tbaa !21
  %48 = sext i32 %47 to i64
  %49 = getelementptr inbounds ptr, ptr %46, i64 %48
  %50 = load ptr, ptr %2, align 8, !tbaa !45
  %51 = load ptr, ptr %50, align 8, !tbaa !27
  %52 = getelementptr inbounds nuw %struct.AVFilterFormats, ptr %51, i32 0, i32 3
  %53 = load ptr, ptr %52, align 8, !tbaa !50
  %54 = load i32, ptr %3, align 4, !tbaa !21
  %55 = sext i32 %54 to i64
  %56 = getelementptr inbounds ptr, ptr %53, i64 %55
  %57 = getelementptr inbounds ptr, ptr %56, i64 1
  %58 = load ptr, ptr %2, align 8, !tbaa !45
  %59 = load ptr, ptr %58, align 8, !tbaa !27
  %60 = getelementptr inbounds nuw %struct.AVFilterFormats, ptr %59, i32 0, i32 2
  %61 = load i32, ptr %60, align 8, !tbaa !49
  %62 = load i32, ptr %3, align 4, !tbaa !21
  %63 = sub i32 %61, %62
  %64 = sub i32 %63, 1
  %65 = zext i32 %64 to i64
  %66 = mul i64 8, %65
  call void @llvm.memmove.p0.p0.i64(ptr align 8 %49, ptr align 8 %57, i64 %66, i1 false)
  %67 = load ptr, ptr %2, align 8, !tbaa !45
  %68 = load ptr, ptr %67, align 8, !tbaa !27
  %69 = getelementptr inbounds nuw %struct.AVFilterFormats, ptr %68, i32 0, i32 2
  %70 = load i32, ptr %69, align 8, !tbaa !49
  %71 = add i32 %70, -1
  store i32 %71, ptr %69, align 8, !tbaa !49
  br label %72

72:                                               ; preds = %42, %39
  %73 = load ptr, ptr %2, align 8, !tbaa !45
  %74 = load ptr, ptr %73, align 8, !tbaa !27
  %75 = getelementptr inbounds nuw %struct.AVFilterFormats, ptr %74, i32 0, i32 2
  %76 = load i32, ptr %75, align 8, !tbaa !49
  %77 = icmp ne i32 %76, 0
  br i1 %77, label %92, label %78

78:                                               ; preds = %72
  br label %79

79:                                               ; preds = %78
  br label %80

80:                                               ; preds = %79
  br label %81

81:                                               ; preds = %80
  %82 = load ptr, ptr %2, align 8, !tbaa !45
  %83 = load ptr, ptr %82, align 8, !tbaa !27
  %84 = getelementptr inbounds nuw %struct.AVFilterFormats, ptr %83, i32 0, i32 1
  %85 = load ptr, ptr %84, align 8, !tbaa !32
  call void @av_free(ptr noundef %85)
  %86 = load ptr, ptr %2, align 8, !tbaa !45
  %87 = load ptr, ptr %86, align 8, !tbaa !27
  %88 = getelementptr inbounds nuw %struct.AVFilterFormats, ptr %87, i32 0, i32 3
  %89 = load ptr, ptr %88, align 8, !tbaa !50
  call void @av_free(ptr noundef %89)
  %90 = load ptr, ptr %2, align 8, !tbaa !45
  %91 = load ptr, ptr %90, align 8, !tbaa !27
  call void @av_free(ptr noundef %91)
  br label %92

92:                                               ; preds = %81, %72
  %93 = load ptr, ptr %2, align 8, !tbaa !45
  store ptr null, ptr %93, align 8, !tbaa !27
  store i32 0, ptr %4, align 4
  br label %94

94:                                               ; preds = %92, %10
  call void @llvm.lifetime.end.p0(i64 4, ptr %3) #7
  %95 = load i32, ptr %4, align 4
  switch i32 %95, label %98 [
    i32 0, label %96
    i32 1, label %97
  ]

96:                                               ; preds = %94
  br label %97

97:                                               ; preds = %94, %96
  ret void

98:                                               ; preds = %94
  unreachable
}

; Function Attrs: nounwind uwtable
define i32 @ff_formats_ref(ptr noundef %0, ptr noundef %1) #0 {
  %3 = alloca i32, align 4
  %4 = alloca ptr, align 8
  %5 = alloca ptr, align 8
  %6 = alloca ptr, align 8
  %7 = alloca i32, align 4
  store ptr %0, ptr %4, align 8, !tbaa !27
  store ptr %1, ptr %5, align 8, !tbaa !45
  call void @llvm.lifetime.start.p0(i64 8, ptr %6) #7
  %8 = load ptr, ptr %4, align 8, !tbaa !27
  %9 = icmp ne ptr %8, null
  br i1 %9, label %11, label %10

10:                                               ; preds = %2
  store i32 -12, ptr %3, align 4
  store i32 1, ptr %7, align 4
  br label %40

11:                                               ; preds = %2
  %12 = load ptr, ptr %4, align 8, !tbaa !27
  %13 = getelementptr inbounds nuw %struct.AVFilterFormats, ptr %12, i32 0, i32 3
  %14 = load ptr, ptr %13, align 8, !tbaa !50
  %15 = load ptr, ptr %4, align 8, !tbaa !27
  %16 = getelementptr inbounds nuw %struct.AVFilterFormats, ptr %15, i32 0, i32 2
  %17 = load i32, ptr %16, align 8, !tbaa !49
  %18 = add i32 %17, 1
  %19 = zext i32 %18 to i64
  %20 = call ptr @av_realloc_array(ptr noundef %14, i64 noundef 8, i64 noundef %19)
  store ptr %20, ptr %6, align 8, !tbaa !71
  %21 = load ptr, ptr %6, align 8, !tbaa !71
  %22 = icmp ne ptr %21, null
  br i1 %22, label %24, label %23

23:                                               ; preds = %11
  call void @ff_formats_unref(ptr noundef %4)
  store i32 -12, ptr %3, align 4
  store i32 1, ptr %7, align 4
  br label %40

24:                                               ; preds = %11
  %25 = load ptr, ptr %6, align 8, !tbaa !71
  %26 = load ptr, ptr %4, align 8, !tbaa !27
  %27 = getelementptr inbounds nuw %struct.AVFilterFormats, ptr %26, i32 0, i32 3
  store ptr %25, ptr %27, align 8, !tbaa !50
  %28 = load ptr, ptr %5, align 8, !tbaa !45
  %29 = load ptr, ptr %4, align 8, !tbaa !27
  %30 = getelementptr inbounds nuw %struct.AVFilterFormats, ptr %29, i32 0, i32 3
  %31 = load ptr, ptr %30, align 8, !tbaa !50
  %32 = load ptr, ptr %4, align 8, !tbaa !27
  %33 = getelementptr inbounds nuw %struct.AVFilterFormats, ptr %32, i32 0, i32 2
  %34 = load i32, ptr %33, align 8, !tbaa !49
  %35 = add i32 %34, 1
  store i32 %35, ptr %33, align 8, !tbaa !49
  %36 = zext i32 %34 to i64
  %37 = getelementptr inbounds nuw ptr, ptr %31, i64 %36
  store ptr %28, ptr %37, align 8, !tbaa !45
  %38 = load ptr, ptr %4, align 8, !tbaa !27
  %39 = load ptr, ptr %5, align 8, !tbaa !45
  store ptr %38, ptr %39, align 8, !tbaa !27
  store i32 0, ptr %3, align 4
  store i32 1, ptr %7, align 4
  br label %40

40:                                               ; preds = %24, %23, %10
  call void @llvm.lifetime.end.p0(i64 8, ptr %6) #7
  %41 = load i32, ptr %3, align 4
  ret i32 %41
}