; Function Attrs: nounwind uwtable
define range(i32 -12, 1) i32 @ff_formats_ref(ptr noundef %0, ptr noundef %1) local_unnamed_addr #3 {
  %.not = icmp eq ptr %0, null
  br i1 %.not, label %ff_formats_unref.exit, label %3

3:                                                ; preds = %2
  %4 = getelementptr inbounds nuw i8, ptr %0, i64 24
  %5 = load ptr, ptr %4, align 8, !tbaa !42
  %6 = getelementptr inbounds nuw i8, ptr %0, i64 16
  %7 = load i32, ptr %6, align 8, !tbaa !41
  %8 = add i32 %7, 1
  %9 = zext i32 %8 to i64
  %10 = tail call ptr @av_realloc_array(ptr noundef %5, i64 noundef 8, i64 noundef %9) #10
  %.not6 = icmp eq ptr %10, null
  br i1 %.not6, label %.preheader.i, label %15

.preheader.i:                                     ; preds = %3
  %11 = load i32, ptr %6, align 8, !tbaa !41
  %.not26.i = icmp eq i32 %11, 0
  br i1 %.not26.i, label %.thread.thread.i, label %ff_formats_unref.exit

.thread.thread.i:                                 ; preds = %.preheader.i
  %12 = getelementptr inbounds nuw i8, ptr %0, i64 8
  %13 = load ptr, ptr %12, align 8, !tbaa !29
  tail call void @av_free(ptr noundef %13) #10
  %14 = load ptr, ptr %4, align 8, !tbaa !42
  tail call void @av_free(ptr noundef %14) #10
  tail call void @av_free(ptr noundef nonnull %0) #10
  br label %ff_formats_unref.exit

15:                                               ; preds = %3
  store ptr %10, ptr %4, align 8, !tbaa !42
  %16 = load i32, ptr %6, align 8, !tbaa !41
  %17 = add i32 %16, 1
  store i32 %17, ptr %6, align 8, !tbaa !41
  %18 = zext i32 %16 to i64
  %19 = getelementptr inbounds nuw ptr, ptr %10, i64 %18
  store ptr %1, ptr %19, align 8, !tbaa !43
  store ptr %0, ptr %1, align 8, !tbaa !23
  br label %ff_formats_unref.exit

ff_formats_unref.exit:                            ; preds = %.preheader.i, %.thread.thread.i, %2, %15
  %.0 = phi i32 [ 0, %15 ], [ -12, %2 ], [ -12, %.thread.thread.i ], [ -12, %.preheader.i ]
  ret i32 %.0
}